; Function Attrs: mustprogress uwtable
define void @_ZNK8QuantLib20ForwardRateAgreement11forwardRateEv(ptr dead_on_unwind noalias nocapture writable writeonly sret(%"class.QuantLib::InterestRate") align 8 %agg.result, ptr noundef nonnull align 8 dereferenceable(304) %this) local_unnamed_addr #6 align 2 personality ptr @__gxx_personality_v0 {
entry:
  %vtable = load ptr, ptr %this, align 8, !tbaa !35
  %vfn = getelementptr inbounds i8, ptr %vtable, i64 24
  %0 = load ptr, ptr %vfn, align 8
  tail call void %0(ptr noundef nonnull align 8 dereferenceable(104) %this)
  %forwardRate_ = getelementptr inbounds nuw i8, ptr %this, i64 112
  %1 = load double, ptr %forwardRate_, align 8, !tbaa !102
  store double %1, ptr %agg.result, align 8, !tbaa !102
  %dc_.i = getelementptr inbounds nuw i8, ptr %agg.result, i64 8
  %dc_3.i = getelementptr inbounds nuw i8, ptr %this, i64 120
  %2 = load ptr, ptr %dc_3.i, align 8, !tbaa !71
  store ptr %2, ptr %dc_.i, align 8, !tbaa !71
  %pn.i.i.i = getelementptr inbounds nuw i8, ptr %agg.result, i64 16
  %pn3.i.i.i = getelementptr inbounds nuw i8, ptr %this, i64 128
  %3 = load ptr, ptr %pn3.i.i.i, align 8, !tbaa !37
  store ptr %3, ptr %pn.i.i.i, align 8, !tbaa !37
  %cmp.not.i.i.i.i = icmp eq ptr %3, null
  br i1 %cmp.not.i.i.i.i, label %_ZN8QuantLib12InterestRateC2ERKS0_.exit, label %if.then.i.i.i.i

if.then.i.i.i.i:                                  ; preds = %entry
  %use_count_.i.i.i.i.i = getelementptr inbounds nuw i8, ptr %3, i64 8
  %4 = atomicrmw add ptr %use_count_.i.i.i.i.i, i32 1 monotonic, align 4
  br label %_ZN8QuantLib12InterestRateC2ERKS0_.exit

_ZN8QuantLib12InterestRateC2ERKS0_.exit:          ; preds = %entry, %if.then.i.i.i.i
  %comp_.i = getelementptr inbounds nuw i8, ptr %agg.result, i64 24
  %comp_4.i = getelementptr inbounds nuw i8, ptr %this, i64 136
  tail call void @llvm.memcpy.p0.p0.i64(ptr noundef nonnull align 8 dereferenceable(16) %comp_.i, ptr noundef nonnull align 8 dereferenceable(16) %comp_4.i, i64 16, i1 false)
  ret void
}